Certificate:
    Data:
        Version: 3 (0x2)
        Serial Number: 4096 (0x1000)
        Signature Algorithm: sha256WithRSAEncryption
        Issuer: C=VN, ST=HCM, L=HCM, O=HCMUS, OU=GIT, CN=Lam Nguyen/emailAddress=ntam19@apcs.vn
        Validity
            Not Before: Jul 31 09:16:35 2022 GMT
            Not After : Jul 28 09:16:35 2032 GMT
        Subject: C=US, O=Bank32 Inc., CN=www.onlineup.web.app
        Subject Public Key Info:
            Public Key Algorithm: rsaEncryption
                RSA Public-Key: (2048 bit)
                Modulus:
                    00:bd:39:5b:16:3a:c5:ac:42:32:b7:e2:73:67:5d:
                    b4:57:91:36:80:ec:84:be:d9:08:18:ec:25:32:63:
                    78:73:c0:69:2e:6c:de:37:14:c9:14:36:fa:85:72:
                    3e:02:52:f1:1d:4f:d4:b9:ea:2f:d7:03:4f:07:fe:
                    22:f2:9d:2e:e0:72:0b:62:a8:23:ef:b6:6e:30:ec:
                    38:fc:8d:c2:7a:86:63:56:cc:23:a0:8b:3b:01:8b:
                    3f:1f:5b:35:89:33:4d:62:28:89:57:9a:ad:b3:a2:
                    de:4e:58:49:95:79:ee:84:22:d6:ba:b6:52:f8:ee:
                    28:88:68:5a:6c:84:27:02:df:53:30:5c:7f:ac:fe:
                    7e:d6:39:4a:36:a6:66:a2:c5:3c:83:31:fa:ec:13:
                    a3:99:b7:2e:91:6f:f6:32:55:66:48:ec:1a:c1:ac:
                    f2:cb:ed:89:88:1f:7d:c9:af:59:91:8a:f2:84:0f:
                    3f:3f:cd:9c:53:2a:81:57:59:7d:09:a7:80:ba:a6:
                    27:ab:e9:ad:3d:b8:c2:c7:71:20:64:47:59:a8:3d:
                    7d:e1:86:f0:bf:4c:80:d4:11:9f:18:a9:0e:13:f1:
                    ab:7c:30:f9:aa:99:ba:ec:bf:05:cf:40:2e:5e:f6:
                    f4:75:68:81:b9:d8:f2:63:04:da:6e:66:6b:73:be:
                    3d:cb
                Exponent: 65537 (0x10001)
        X509v3 extensions:
            X509v3 Basic Constraints: 
                CA:FALSE
            Netscape Comment: 
                OpenSSL Generated Certificate
            X509v3 Subject Key Identifier: 
                5E:AD:6B:94:6D:2F:16:62:B9:ED:97:37:89:E6:FF:B4:AB:68:70:BD
            X509v3 Authority Key Identifier: 
                keyid:18:9D:69:2D:FF:58:10:DC:CC:8B:A9:C0:D8:46:AE:EA:6E:87:22:57

    Signature Algorithm: sha256WithRSAEncryption
         63:2f:cd:9a:64:60:4e:1d:89:b0:c8:d9:11:ac:8e:d1:19:20:
         ae:75:c3:0f:6e:1a:fe:df:29:c5:c4:43:ae:2f:48:04:61:e1:
         b3:7a:1b:88:7e:fb:78:53:84:39:a0:15:ee:bf:2a:55:9f:57:
         15:fc:a2:ae:f9:16:cb:db:2e:bd:b4:ab:f8:38:20:6b:17:0a:
         87:51:03:e3:89:3e:c6:e3:a1:94:82:a1:86:d7:73:76:80:56:
         2c:c6:b4:1e:6f:65:87:5a:06:a7:6a:da:f8:05:69:29:3e:9f:
         b5:03:3b:36:29:6e:97:68:58:69:40:0d:91:68:0b:dc:a4:29:
         89:55:74:d1:de:32:cb:9f:30:49:e1:17:e8:d5:05:34:78:b8:
         a1:3a:1c:b2:64:44:a6:6a:1f:d7:41:db:25:ac:35:e6:5f:75:
         bb:d0:64:6d:07:2b:c6:cc:17:e8:e5:b0:c8:ea:86:38:f1:b1:
         b1:94:1c:46:bb:45:a0:22:0e:7c:f4:d8:32:d4:06:8e:2b:56:
         52:af:61:d2:d9:4e:81:e0:9d:c9:67:53:b1:b4:83:01:f4:85:
         7f:f6:cb:f6:81:10:71:83:28:36:d3:8f:a0:5d:18:4f:c9:39:
         2c:e1:8d:a7:23:37:9c:80:5c:f1:b2:15:17:b1:13:69:2c:72:
         e3:96:f1:07:30:94:7d:56:2a:6f:a4:82:04:f1:a9:c7:24:f0:
         42:69:1c:cd:b9:38:9b:9f:6b:e3:bd:73:a7:63:ab:c2:0b:11:
         14:70:e1:b3:57:b1:8a:93:79:e1:4d:48:fa:a2:e1:2f:a2:0f:
         39:4f:f0:a2:78:b3:ab:b6:33:88:1a:68:cd:2f:e0:ee:bd:0f:
         07:6c:f7:dd:b3:f1:a6:90:41:6b:8c:8c:5a:8f:b8:28:e9:7e:
         d0:b2:de:d7:cb:c1:3c:c0:98:95:2e:c0:e7:8f:83:60:97:39:
         ef:73:87:b0:bc:03:be:11:3a:3a:2e:2d:68:94:54:f4:cb:ad:
         e7:81:18:1d:e9:75:db:bd:95:d4:e5:e0:dc:6d:69:b3:18:e3:
         08:12:39:fa:54:b9:ec:1a:83:65:ee:09:d9:26:a1:e9:1d:6c:
         46:19:d5:3d:92:72:b5:69:92:47:df:bc:19:27:c1:4d:d0:b7:
         7e:0a:b4:af:40:38:4b:a9:e9:ea:b1:bd:a0:f0:48:55:39:e1:
         dc:dd:56:0b:08:97:27:f1:98:0a:7f:92:c2:44:fd:27:62:00:
         90:c9:63:ca:f5:9f:08:06:20:06:bc:6b:74:ba:a4:4f:8b:90:
         9c:ee:6b:5f:e4:48:a4:53:60:86:a3:12:55:36:1e:7b:ae:67:
         95:83:95:ba:4e:92:30:88
-----BEGIN CERTIFICATE-----
MIIEtDCCApygAwIBAgICEAAwDQYJKoZIhvcNAQELBQAwezELMAkGA1UEBhMCVk4x
DDAKBgNVBAgMA0hDTTEMMAoGA1UEBwwDSENNMQ4wDAYDVQQKDAVIQ01VUzEMMAoG
A1UECwwDR0lUMRMwEQYDVQQDDApMYW0gTmd1eWVuMR0wGwYJKoZIhvcNAQkBFg5u
dGFtMTlAYXBjcy52bjAeFw0yMjA3MzEwOTE2MzVaFw0zMjA3MjgwOTE2MzVaMEIx
CzAJBgNVBAYTAlVTMRQwEgYDVQQKDAtCYW5rMzIgSW5jLjEdMBsGA1UEAwwUd3d3
Lm9ubGluZXVwLndlYi5hcHAwggEiMA0GCSqGSIb3DQEBAQUAA4IBDwAwggEKAoIB
AQC9OVsWOsWsQjK34nNnXbRXkTaA7IS+2QgY7CUyY3hzwGkubN43FMkUNvqFcj4C
UvEdT9S56i/XA08H/iLynS7gcgtiqCPvtm4w7Dj8jcJ6hmNWzCOgizsBiz8fWzWJ
M01iKIlXmq2zot5OWEmVee6EIta6tlL47iiIaFpshCcC31MwXH+s/n7WOUo2pmai
xTyDMfrsE6OZty6Rb/YyVWZI7BrBrPLL7YmIH33Jr1mRivKEDz8/zZxTKoFXWX0J
p4C6pier6a09uMLHcSBkR1moPX3hhvC/TIDUEZ8YqQ4T8at8MPmqmbrsvwXPQC5e
9vR1aIG52PJjBNpuZmtzvj3LAgMBAAGjezB5MAkGA1UdEwQCMAAwLAYJYIZIAYb4
QgENBB8WHU9wZW5TU0wgR2VuZXJhdGVkIENlcnRpZmljYXRlMB0GA1UdDgQWBBRe
rWuUbS8WYrntlzeJ5v+0q2hwvTAfBgNVHSMEGDAWgBQYnWkt/1gQ3MyLqcDYRq7q
bociVzANBgkqhkiG9w0BAQsFAAOCAgEAYy/NmmRgTh2JsMjZEayO0RkgrnXDD24a
/t8pxcRDri9IBGHhs3obiH77eFOEOaAV7r8qVZ9XFfyirvkWy9suvbSr+DggaxcK
h1ED44k+xuOhlIKhhtdzdoBWLMa0Hm9lh1oGp2ra+AVpKT6ftQM7Nilul2hYaUAN
kWgL3KQpiVV00d4yy58wSeEX6NUFNHi4oTocsmREpmof10HbJaw15l91u9BkbQcr
xswX6OWwyOqGOPGxsZQcRrtFoCIOfPTYMtQGjitWUq9h0tlOgeCdyWdTsbSDAfSF
f/bL9oEQcYMoNtOPoF0YT8k5LOGNpyM3nIBc8bIVF7ETaSxy45bxBzCUfVYqb6SC
BPGpxyTwQmkczbk4m59r471zp2OrwgsRFHDhs1exipN54U1I+qLhL6IPOU/woniz
q7YziBpozS/g7r0PB2z33bPxppBBa4yMWo+4KOl+0LLe18vBPMCYlS7A54+DYJc5
73OHsLwDvhE6Oi4taJRU9Mut54EYHel1272V1OXg3G1psxjjCBI5+lS57BqDZe4J
2Sah6R1sRhnVPZJytWmSR9+8GSfBTdC3fgq0r0A4S6np6rG9oPBIVTnh3N1WCwiX
J/GYCn+SwkT9J2IAkMljyvWfCAYgBrxrdLqkT4uQnO5rX+RIpFNghqMSVTYee65n
lYOVuk6SMIg=
-----END CERTIFICATE-----
