Certificate:
    Data:
        Version: 3 (0x2)
        Serial Number: 4097 (0x1001)
        Signature Algorithm: sha256WithRSAEncryption
        Issuer: C=VN, ST=HCM, L=HCM, O=HCMUS, OU=GIT, CN=Lam Nguyen/emailAddress=ntam19@apcs.vn
        Validity
            Not Before: Aug  2 15:01:14 2022 GMT
            Not After : Jul 30 15:01:14 2032 GMT
        Subject: C=US, O=Bank32 Inc., CN=www.nguyen2022.com
        Subject Public Key Info:
            Public Key Algorithm: rsaEncryption
                RSA Public-Key: (2048 bit)
                Modulus:
                    00:cc:99:ce:da:af:20:d7:e2:db:8f:8b:06:34:59:
                    f8:6e:2f:82:05:cd:b4:1e:9c:93:a1:56:74:3e:68:
                    34:d4:21:15:6c:cc:3b:da:13:30:3c:9f:9b:66:33:
                    56:bc:8f:5e:23:e8:ce:5a:f5:47:08:f6:38:d8:73:
                    1e:91:52:73:75:81:c7:c1:8b:b2:24:8c:0f:3b:9b:
                    a2:34:ca:94:90:d8:bf:74:40:d4:45:58:7b:26:a0:
                    3b:d5:d2:a7:ea:77:a5:23:66:98:e6:8f:89:30:c7:
                    ec:4c:f1:f2:0e:e6:f2:36:6b:32:3a:9b:94:fd:d4:
                    c3:43:ca:cb:8b:18:55:8c:bc:15:48:7c:59:c1:d7:
                    6b:df:8b:cf:a8:2c:13:b4:57:4e:b3:40:43:cd:75:
                    5d:84:85:8a:fb:bc:bc:59:e0:92:18:00:ce:20:d3:
                    07:fb:a7:4c:36:40:73:f6:e4:06:a1:d3:6c:73:a0:
                    0e:92:de:8c:cf:5d:a6:d0:6a:9b:a5:51:25:15:43:
                    52:f3:bc:ce:92:a9:74:ac:d4:cd:bb:59:1a:33:3e:
                    1c:5d:7c:eb:76:fc:a3:e3:1e:66:b8:55:45:e3:9a:
                    6e:f8:e8:d4:a5:89:c8:8c:06:6b:68:5f:5b:3a:1f:
                    b8:5c:dc:ca:56:33:89:f2:cf:5d:d0:42:c0:1a:68:
                    d9:b3
                Exponent: 65537 (0x10001)
        X509v3 extensions:
            X509v3 Basic Constraints: 
                CA:FALSE
            Netscape Comment: 
                OpenSSL Generated Certificate
            X509v3 Subject Key Identifier: 
                BF:88:60:0E:68:27:4B:CB:B0:68:14:72:EA:C9:E2:70:8E:E8:A7:C8
            X509v3 Authority Key Identifier: 
                keyid:18:9D:69:2D:FF:58:10:DC:CC:8B:A9:C0:D8:46:AE:EA:6E:87:22:57

    Signature Algorithm: sha256WithRSAEncryption
         46:bd:8c:3b:25:c5:eb:77:61:18:a2:d1:93:76:c1:bc:7f:b0:
         6b:ef:b3:85:a3:4c:56:26:df:e2:25:dd:bb:1e:a6:34:0f:60:
         2a:75:c4:21:ea:21:f9:52:98:c2:29:2f:92:d2:a1:c0:de:70:
         36:ac:95:a4:04:f3:6c:33:fe:fd:be:ef:d1:c7:f2:81:ec:29:
         5f:54:f7:df:0c:76:0b:8a:6f:b5:f6:6f:a7:2c:42:3d:4e:0f:
         1c:b0:69:b2:c2:88:00:26:db:4c:e5:a6:65:65:aa:fe:47:2d:
         b4:89:77:36:6f:ec:0d:48:da:df:e2:ef:b1:d1:c1:27:89:fe:
         4f:01:e4:82:96:bc:74:47:bd:e0:f1:91:21:8b:1f:59:32:65:
         de:c6:c8:89:a2:40:08:93:e2:5b:a1:c1:45:96:82:06:fd:d8:
         10:f0:f1:bd:4e:19:55:6d:a0:82:25:ea:c5:29:59:74:53:84:
         81:82:84:91:c6:3d:47:c2:81:5d:f6:f8:07:0e:2a:35:f1:a2:
         5d:f4:50:f9:28:0d:ef:e9:09:f8:64:65:4a:1b:87:29:61:7b:
         13:a8:ac:d0:7d:6c:6a:25:84:fe:8a:20:d1:f5:d1:ed:e5:28:
         d7:0d:f7:59:9d:94:45:a1:72:aa:dc:35:77:19:a1:f9:78:8d:
         2e:dc:18:b3:d6:09:dc:9d:49:a4:7b:35:9d:a6:55:07:f3:25:
         00:83:6d:d9:fa:0c:71:d4:34:e7:b3:4f:89:c4:46:6c:ff:8e:
         f1:48:09:0f:b1:00:a6:93:72:92:14:41:bb:f2:aa:14:ae:13:
         10:d5:87:84:6f:13:c1:05:22:5b:a3:81:69:a3:7c:af:59:ba:
         9b:4a:f5:06:bb:d3:7e:70:4d:22:9f:b5:d5:53:ca:d0:d6:64:
         cc:68:bf:97:8c:e7:34:f1:20:b9:87:52:d6:d4:5f:f6:37:b5:
         14:41:33:6e:07:8c:5a:8e:af:a5:c1:3a:b8:4d:1b:14:1a:8f:
         01:2a:f8:6d:ca:44:9a:54:9f:83:4d:95:a0:84:0a:27:ce:9a:
         06:f9:c3:b5:78:12:56:ac:af:d0:ed:ca:26:ac:8f:76:c8:f5:
         e3:ed:9e:18:ef:f8:42:27:36:e0:ed:78:ad:ec:0e:66:0c:a7:
         2d:bc:9a:af:3c:bf:32:ad:f1:79:3c:86:75:c2:c1:9f:1f:d1:
         8f:bc:1a:46:d3:0d:cf:82:f0:05:6a:31:cc:a3:c2:f7:92:d7:
         9d:9e:45:c4:97:90:02:f6:dc:73:75:45:5d:61:a2:c4:5d:c5:
         ed:c8:1e:cd:d5:f2:2f:2c:e2:f1:1f:0f:4a:0b:5c:ac:d2:9c:
         0b:cd:a0:35:90:18:e7:ca
-----BEGIN CERTIFICATE-----
MIIEsjCCApqgAwIBAgICEAEwDQYJKoZIhvcNAQELBQAwezELMAkGA1UEBhMCVk4x
DDAKBgNVBAgMA0hDTTEMMAoGA1UEBwwDSENNMQ4wDAYDVQQKDAVIQ01VUzEMMAoG
A1UECwwDR0lUMRMwEQYDVQQDDApMYW0gTmd1eWVuMR0wGwYJKoZIhvcNAQkBFg5u
dGFtMTlAYXBjcy52bjAeFw0yMjA4MDIxNTAxMTRaFw0zMjA3MzAxNTAxMTRaMEAx
CzAJBgNVBAYTAlVTMRQwEgYDVQQKDAtCYW5rMzIgSW5jLjEbMBkGA1UEAwwSd3d3
Lm5ndXllbjIwMjIuY29tMIIBIjANBgkqhkiG9w0BAQEFAAOCAQ8AMIIBCgKCAQEA
zJnO2q8g1+Lbj4sGNFn4bi+CBc20HpyToVZ0Pmg01CEVbMw72hMwPJ+bZjNWvI9e
I+jOWvVHCPY42HMekVJzdYHHwYuyJIwPO5uiNMqUkNi/dEDURVh7JqA71dKn6nel
I2aY5o+JMMfsTPHyDubyNmsyOpuU/dTDQ8rLixhVjLwVSHxZwddr34vPqCwTtFdO
s0BDzXVdhIWK+7y8WeCSGADOINMH+6dMNkBz9uQGodNsc6AOkt6Mz12m0GqbpVEl
FUNS87zOkql0rNTNu1kaMz4cXXzrdvyj4x5muFVF45pu+OjUpYnIjAZraF9bOh+4
XNzKVjOJ8s9d0ELAGmjZswIDAQABo3sweTAJBgNVHRMEAjAAMCwGCWCGSAGG+EIB
DQQfFh1PcGVuU1NMIEdlbmVyYXRlZCBDZXJ0aWZpY2F0ZTAdBgNVHQ4EFgQUv4hg
DmgnS8uwaBRy6snicI7op8gwHwYDVR0jBBgwFoAUGJ1pLf9YENzMi6nA2Eau6m6H
IlcwDQYJKoZIhvcNAQELBQADggIBAEa9jDslxet3YRii0ZN2wbx/sGvvs4WjTFYm
3+Il3bsepjQPYCp1xCHqIflSmMIpL5LSocDecDaslaQE82wz/v2+79HH8oHsKV9U
998MdguKb7X2b6csQj1ODxywabLCiAAm20zlpmVlqv5HLbSJdzZv7A1I2t/i77HR
wSeJ/k8B5IKWvHRHveDxkSGLH1kyZd7GyImiQAiT4luhwUWWggb92BDw8b1OGVVt
oIIl6sUpWXRThIGChJHGPUfCgV32+AcOKjXxol30UPkoDe/pCfhkZUobhylhexOo
rNB9bGolhP6KINH10e3lKNcN91mdlEWhcqrcNXcZofl4jS7cGLPWCdydSaR7NZ2m
VQfzJQCDbdn6DHHUNOezT4nERmz/jvFICQ+xAKaTcpIUQbvyqhSuExDVh4RvE8EF
IlujgWmjfK9ZuptK9Qa7035wTSKftdVTytDWZMxov5eM5zTxILmHUtbUX/Y3tRRB
M24HjFqOr6XBOrhNGxQajwEq+G3KRJpUn4NNlaCECifOmgb5w7V4Elasr9Dtyias
j3bI9ePtnhjv+EInNuDteK3sDmYMpy28mq88vzKt8Xk8hnXCwZ8f0Y+8GkbTDc+C
8AVqMcyjwveS152eRcSXkAL23HN1RV1hosRdxe3IHs3V8i8s4vEfD0oLXKzSnAvN
oDWQGOfK
-----END CERTIFICATE-----
