Certificate:
    Data:
        Version: 3 (0x2)
        Serial Number: 4096 (0x1000)
        Signature Algorithm: sha256WithRSAEncryption
        Issuer: C=VN, ST=Ho Chi Minh, L=Ho Chi Minh, O=Internet Widgits Pty Ltd
        Validity
            Not Before: Aug  3 15:43:41 2022 GMT
            Not After : Jul 31 15:43:41 2032 GMT
        Subject: C=US, O=FakeNguyen2022 Inc., CN=www.fake_nguyen2022.com
        Subject Public Key Info:
            Public Key Algorithm: rsaEncryption
                RSA Public-Key: (2048 bit)
                Modulus:
                    00:d7:3f:ba:b3:70:da:0c:d4:76:d0:52:02:1d:a4:
                    af:e7:54:2a:8f:9f:6e:07:f7:b8:4a:ca:44:d4:0a:
                    90:40:26:15:60:b6:8b:73:cb:39:5b:de:a9:e1:e0:
                    2d:fa:a7:cd:77:7a:7f:28:6d:51:4b:49:6c:02:25:
                    67:d5:fa:89:97:bb:24:78:d2:77:cd:26:4a:c5:3c:
                    a2:4a:cf:65:ad:ee:78:38:36:d0:a1:bc:40:d7:fb:
                    9f:6c:fe:16:4d:12:04:2c:dc:0e:6a:18:14:bb:4b:
                    87:0a:79:2a:f8:09:86:0f:e0:8f:0f:eb:08:2c:22:
                    5c:47:e7:a7:50:1b:e5:e2:d6:a6:09:56:d9:62:23:
                    78:a7:04:1b:71:dd:0c:8d:42:39:61:21:1e:ca:17:
                    ce:bf:2f:97:e4:aa:fe:1f:29:e2:a8:cd:82:b6:64:
                    2c:b7:3f:36:58:6c:b7:87:76:d8:bb:43:5c:91:50:
                    f2:65:3d:dc:5e:95:a7:3e:40:ba:fe:ec:1b:66:c6:
                    1d:de:bf:1c:47:24:d8:aa:37:be:1c:5d:ac:58:a7:
                    1f:57:51:f1:18:2d:99:c8:a0:4f:92:7b:89:2a:38:
                    3b:f1:77:01:42:12:84:f7:5a:d7:e4:de:21:9e:2e:
                    08:b4:35:b8:ab:f6:d1:e0:a2:a3:f8:44:89:1e:21:
                    99:cf
                Exponent: 65537 (0x10001)
        X509v3 extensions:
            X509v3 Basic Constraints: 
                CA:FALSE
            Netscape Comment: 
                OpenSSL Generated Certificate
            X509v3 Subject Key Identifier: 
                57:5D:38:74:78:DF:EB:9B:CD:A4:75:72:F9:C7:8E:8A:1D:E2:BF:B4
            X509v3 Authority Key Identifier: 
                keyid:F1:58:09:42:C4:1A:90:BC:4F:8E:20:34:AB:03:DB:64:0F:5B:62:84

    Signature Algorithm: sha256WithRSAEncryption
         8b:bf:7e:7c:3b:1b:14:1d:f1:44:a2:1a:91:35:65:36:f7:f1:
         87:da:41:d3:ad:e3:89:a2:47:f1:a9:5e:3c:c3:c8:6e:95:a9:
         bb:da:87:b2:91:ae:db:9a:f7:02:34:1f:e8:88:fb:01:d5:11:
         4a:43:af:15:3f:da:40:83:24:a0:50:9e:11:b2:c1:c7:fe:cf:
         ad:56:71:58:fb:10:89:56:54:5c:26:0a:a9:09:21:3f:0b:02:
         57:fd:41:a9:72:18:83:23:d3:75:3e:c0:db:0c:48:a2:f3:cf:
         d0:76:59:1a:c6:1f:33:5c:71:35:67:c4:b6:fe:e5:ab:b6:4c:
         a5:01:ab:4d:bb:c0:a9:09:5f:da:ef:b9:03:53:79:6e:cf:82:
         79:b4:06:b9:19:4d:1b:91:d9:8e:a7:30:cb:20:bf:95:26:fb:
         23:52:4d:c8:df:d5:08:07:09:9f:f0:15:82:a5:c6:26:2b:87:
         c6:5d:59:74:c8:af:2e:d1:18:40:59:c8:09:ba:43:2e:57:06:
         25:a2:c4:80:e2:98:9d:12:a1:1d:69:72:55:e2:5c:df:42:a3:
         e4:f0:71:19:3f:d0:58:d9:99:49:a7:86:d2:5f:d0:f6:84:53:
         84:22:51:b6:b3:e4:f3:b7:b4:72:44:b1:45:75:86:e9:fd:b7:
         ff:e2:49:6b:4f:69:d7:9c:3f:9b:8e:2f:8b:4a:c7:61:35:db:
         21:3a:8f:a1:a1:ba:41:17:e7:8a:8a:e7:a5:d5:40:8d:ef:1a:
         2f:04:c1:b8:13:63:bb:a4:2c:a7:9a:64:7b:f5:be:44:3f:65:
         f8:d4:83:74:37:67:64:ef:b0:f5:88:de:d7:ef:50:ff:b5:0d:
         33:be:df:29:c7:3a:ea:50:fd:0b:99:d3:73:6e:e9:c5:e8:46:
         b8:c0:a3:52:c9:b0:ac:be:68:01:5f:55:36:d6:3a:37:1c:eb:
         26:c9:ec:45:f1:95:7e:ee:0e:92:0a:ce:07:c4:23:c1:3c:1d:
         7d:bf:40:82:b0:f8:04:f9:78:c1:74:1a:ac:27:49:31:eb:62:
         de:a4:c6:d1:1e:52:0f:84:e8:c8:6c:f4:37:59:a2:86:42:1d:
         40:b0:a2:46:45:16:a4:38:4b:9f:46:07:3b:2e:dd:1c:2e:8f:
         a6:19:86:fe:95:d8:9b:9f:5a:28:70:fc:6e:39:f7:a8:9d:77:
         d7:0d:9c:b3:13:25:cf:fb:3c:d7:38:91:79:cb:a4:ed:ca:0b:
         8c:63:17:8d:8d:74:66:7e:98:56:aa:c7:44:b7:1c:e4:dc:2e:
         6c:7e:91:28:1c:c8:6c:f7:41:4a:ba:09:f3:45:52:e7:83:e8:
         02:86:f4:15:f7:37:a8:54
-----BEGIN CERTIFICATE-----
MIIEoDCCAoigAwIBAgICEAAwDQYJKoZIhvcNAQELBQAwXDELMAkGA1UEBhMCVk4x
FDASBgNVBAgMC0hvIENoaSBNaW5oMRQwEgYDVQQHDAtIbyBDaGkgTWluaDEhMB8G
A1UECgwYSW50ZXJuZXQgV2lkZ2l0cyBQdHkgTHRkMB4XDTIyMDgwMzE1NDM0MVoX
DTMyMDczMTE1NDM0MVowTTELMAkGA1UEBhMCVVMxHDAaBgNVBAoME0Zha2VOZ3V5
ZW4yMDIyIEluYy4xIDAeBgNVBAMMF3d3dy5mYWtlX25ndXllbjIwMjIuY29tMIIB
IjANBgkqhkiG9w0BAQEFAAOCAQ8AMIIBCgKCAQEA1z+6s3DaDNR20FICHaSv51Qq
j59uB/e4SspE1AqQQCYVYLaLc8s5W96p4eAt+qfNd3p/KG1RS0lsAiVn1fqJl7sk
eNJ3zSZKxTyiSs9lre54ODbQobxA1/ufbP4WTRIELNwOahgUu0uHCnkq+AmGD+CP
D+sILCJcR+enUBvl4tamCVbZYiN4pwQbcd0MjUI5YSEeyhfOvy+X5Kr+HyniqM2C
tmQstz82WGy3h3bYu0NckVDyZT3cXpWnPkC6/uwbZsYd3r8cRyTYqje+HF2sWKcf
V1HxGC2ZyKBPknuJKjg78XcBQhKE91rX5N4hni4ItDW4q/bR4KKj+ESJHiGZzwID
AQABo3sweTAJBgNVHRMEAjAAMCwGCWCGSAGG+EIBDQQfFh1PcGVuU1NMIEdlbmVy
YXRlZCBDZXJ0aWZpY2F0ZTAdBgNVHQ4EFgQUV104dHjf65vNpHVy+ceOih3iv7Qw
HwYDVR0jBBgwFoAU8VgJQsQakLxPjiA0qwPbZA9bYoQwDQYJKoZIhvcNAQELBQAD
ggIBAIu/fnw7GxQd8USiGpE1ZTb38YfaQdOt44miR/GpXjzDyG6Vqbvah7KRrtua
9wI0H+iI+wHVEUpDrxU/2kCDJKBQnhGywcf+z61WcVj7EIlWVFwmCqkJIT8LAlf9
QalyGIMj03U+wNsMSKLzz9B2WRrGHzNccTVnxLb+5au2TKUBq027wKkJX9rvuQNT
eW7Pgnm0BrkZTRuR2Y6nMMsgv5Um+yNSTcjf1QgHCZ/wFYKlxiYrh8ZdWXTIry7R
GEBZyAm6Qy5XBiWixIDimJ0SoR1pclXiXN9Co+TwcRk/0FjZmUmnhtJf0PaEU4Qi
Ubaz5PO3tHJEsUV1hun9t//iSWtPadecP5uOL4tKx2E12yE6j6GhukEX54qK56XV
QI3vGi8EwbgTY7ukLKeaZHv1vkQ/ZfjUg3Q3Z2TvsPWI3tfvUP+1DTO+3ynHOupQ
/QuZ03Nu6cXoRrjAo1LJsKy+aAFfVTbWOjcc6ybJ7EXxlX7uDpIKzgfEI8E8HX2/
QIKw+AT5eMF0GqwnSTHrYt6kxtEeUg+E6Mhs9DdZooZCHUCwokZFFqQ4S59GBzsu
3Rwuj6YZhv6V2JufWihw/G4596idd9cNnLMTJc/7PNc4kXnLpO3KC4xjF42NdGZ+
mFaqx0S3HOTcLmx+kSgcyGz3QUq6CfNFUueD6AKG9BX3N6hU
-----END CERTIFICATE-----
